target datalayout = "e-m:e-p270:32:32-p271:32:32-p272:64:64-i64:64-i128:128-f80:128-n8:16:32:64-S128"
target triple = "x86_64-pc-linux-gnu"

; Function Attrs: nounwind uwtable
define dso_local zeroext i1 @check_autovacuum_work_mem(ptr noundef %0, ptr noundef %1, i32 noundef %2) #4 {
  %4 = alloca i1, align 1
  %5 = alloca ptr, align 8
  %6 = alloca ptr, align 8
  %7 = alloca i32, align 4
  store ptr %0, ptr %5, align 8
  store ptr %1, ptr %6, align 8
  store i32 %2, ptr %7, align 4
  %8 = load ptr, ptr %5, align 8
  %9 = load i32, ptr %8, align 4
  %10 = icmp eq i32 %9, -1
  br i1 %10, label %11, label %12

11:                                               ; preds = %3
  store i1 true, ptr %4, align 1
  br label %19

12:                                               ; preds = %3
  %13 = load ptr, ptr %5, align 8
  %14 = load i32, ptr %13, align 4
  %15 = icmp slt i32 %14, 64
  br i1 %15, label %16, label %18

16:                                               ; preds = %12
  %17 = load ptr, ptr %5, align 8
  store i32 64, ptr %17, align 4
  br label %18

18:                                               ; preds = %16, %12
  store i1 true, ptr %4, align 1
  br label %19

19:                                               ; preds = %18, %11
  %20 = load i1, ptr %4, align 1
  ret i1 %20
}