; Function Attrs: mustprogress nofree norecurse nosync nounwind willreturn memory(argmem: readwrite) uwtable
define dso_local noundef zeroext i1 @check_autovacuum_work_mem(ptr noundef captures(none) %0, ptr noundef readnone captures(none) %1, i32 noundef %2) local_unnamed_addr #11 {
  %4 = load i32, ptr %0, align 4
  %5 = icmp ne i32 %4, -1
  %6 = icmp slt i32 %4, 64
  %or.cond = and i1 %5, %6
  br i1 %or.cond, label %7, label %8

7:                                                ; preds = %3
  store i32 64, ptr %0, align 4
  br label %8

8:                                                ; preds = %7, %3
  ret i1 true
}